; Function Attrs: mustprogress uwtable
define internal fastcc noundef range(i32 0, 2) i32 @_ZN7testing8internalL20PrintCharsAsStringToIcEENS0_10CharFormatEPKT_mPSo(ptr noundef readonly captures(none) %0, i64 noundef %1, ptr noundef nonnull %2) unnamed_addr #3 {
  %4 = tail call noundef nonnull align 8 dereferenceable(8) ptr @_ZSt16__ostream_insertIcSt11char_traitsIcEERSt13basic_ostreamIT_T0_ES6_PKS3_l(ptr noundef nonnull align 8 dereferenceable(8) %2, ptr noundef nonnull @.str.5, i64 noundef 0)
  %5 = tail call noundef nonnull align 8 dereferenceable(8) ptr @_ZSt16__ostream_insertIcSt11char_traitsIcEERSt13basic_ostreamIT_T0_ES6_PKS3_l(ptr noundef nonnull align 8 dereferenceable(8) %2, ptr noundef nonnull @.str.184, i64 noundef 1)
  %.not21 = icmp eq i64 %1, 0
  br i1 %.not21, label %._crit_edge, label %.lr.ph

._crit_edge:                                      ; preds = %.lr.ph._crit_edge, %3
  %.017.lcssa = phi i32 [ 0, %3 ], [ %spec.select, %.lr.ph._crit_edge ]
  %6 = tail call noundef nonnull align 8 dereferenceable(8) ptr @_ZSt16__ostream_insertIcSt11char_traitsIcEERSt13basic_ostreamIT_T0_ES6_PKS3_l(ptr noundef nonnull align 8 dereferenceable(8) %2, ptr noundef nonnull @.str.184, i64 noundef 1)
  ret i32 %.017.lcssa

.lr.ph:                                           ; preds = %3, %.lr.ph._crit_edge
  %.020 = phi i1 [ %17, %.lr.ph._crit_edge ], [ false, %3 ]
  %.01619 = phi i64 [ %18, %.lr.ph._crit_edge ], [ 0, %3 ]
  %.01718 = phi i32 [ %spec.select, %.lr.ph._crit_edge ], [ 0, %3 ]
  %7 = getelementptr inbounds nuw i8, ptr %0, i64 %.01619
  %8 = load i8, ptr %7, align 1, !tbaa !27
  %9 = zext i8 %8 to i32
  br i1 %.020, label %10, label %.lr.ph._crit_edge

10:                                               ; preds = %.lr.ph
  %11 = tail call i32 @isxdigit(i32 noundef %9) #63
  %.not = icmp eq i32 %11, 0
  br i1 %.not, label %.lr.ph._crit_edge, label %12

12:                                               ; preds = %10
  %13 = tail call noundef nonnull align 8 dereferenceable(8) ptr @_ZSt16__ostream_insertIcSt11char_traitsIcEERSt13basic_ostreamIT_T0_ES6_PKS3_l(ptr noundef nonnull align 8 dereferenceable(8) %2, ptr noundef nonnull @.str.532, i64 noundef 2)
  %14 = tail call noundef nonnull align 8 dereferenceable(8) ptr @_ZSt16__ostream_insertIcSt11char_traitsIcEERSt13basic_ostreamIT_T0_ES6_PKS3_l(ptr noundef nonnull align 8 dereferenceable(8) %2, ptr noundef nonnull @.str.5, i64 noundef 0)
  %15 = tail call noundef nonnull align 8 dereferenceable(8) ptr @_ZSt16__ostream_insertIcSt11char_traitsIcEERSt13basic_ostreamIT_T0_ES6_PKS3_l(ptr noundef nonnull align 8 dereferenceable(8) %2, ptr noundef nonnull @.str.184, i64 noundef 1)
  br label %.lr.ph._crit_edge

.lr.ph._crit_edge:                                ; preds = %.lr.ph, %12, %10
  %16 = tail call fastcc noundef range(i32 0, 3) i32 @_ZN7testing8internalL22PrintAsStringLiteralToEDiPSo(i32 noundef zeroext %9, ptr noundef nonnull %2)
  %17 = icmp eq i32 %16, 1
  %spec.select = select i1 %17, i32 1, i32 %.01718
  %18 = add nuw i64 %.01619, 1
  %exitcond.not = icmp eq i64 %18, %1
  br i1 %exitcond.not, label %._crit_edge, label %.lr.ph, !llvm.loop !583
}